; ModuleID = '63/595.c'
source_filename = "63/595.c"
target datalayout = "e-m:e-p270:32:32-p271:32:32-p272:64:64-i64:64-f80:128-n8:16:32:64-S128"
target triple = "x86_64-pc-linux-gnu"

@.str = private unnamed_addr constant [6 x i8] c"%d %d\00", align 1
@.str.1 = private unnamed_addr constant [3 x i8] c"%d\00", align 1
@.str.2 = private unnamed_addr constant [4 x i8] c"%d \00", align 1
@.str.3 = private unnamed_addr constant [2 x i8] c"\0A\00", align 1

; Function Attrs: noinline nounwind uwtable
define dso_local void @main() #0 {
  %1 = alloca i32, align 4
  %2 = alloca i32, align 4
  %3 = alloca i32, align 4
  %4 = alloca i32, align 4
  %5 = alloca i32, align 4
  %6 = alloca i32, align 4
  %7 = alloca i32, align 4
  %8 = alloca [100 x [100 x i32]], align 16
  %9 = alloca [100 x [100 x i32]], align 16
  %10 = alloca [100 x [100 x i32]], align 16
  %11 = call i32 (i8*, ...) @__isoc99_scanf(i8* getelementptr inbounds ([6 x i8], [6 x i8]* @.str, i64 0, i64 0), i32* %1, i32* %2)
  store i32 0, i32* %5, align 4
  br label %12

12:                                               ; preds = %35, %0
  %13 = load i32, i32* %5, align 4
  %14 = load i32, i32* %1, align 4
  %15 = icmp slt i32 %13, %14
  br i1 %15, label %16, label %38

16:                                               ; preds = %12
  store i32 0, i32* %6, align 4
  br label %17

17:                                               ; preds = %31, %16
  %18 = load i32, i32* %6, align 4
  %19 = load i32, i32* %2, align 4
  %20 = icmp slt i32 %18, %19
  br i1 %20, label %21, label %34

21:                                               ; preds = %17
  %22 = getelementptr inbounds [100 x [100 x i32]], [100 x [100 x i32]]* %8, i64 0, i64 0
  %23 = load i32, i32* %5, align 4
  %24 = sext i32 %23 to i64
  %25 = getelementptr inbounds [100 x i32], [100 x i32]* %22, i64 %24
  %26 = getelementptr inbounds [100 x i32], [100 x i32]* %25, i64 0, i64 0
  %27 = load i32, i32* %6, align 4
  %28 = sext i32 %27 to i64
  %29 = getelementptr inbounds i32, i32* %26, i64 %28
  %30 = call i32 (i8*, ...) @__isoc99_scanf(i8* getelementptr inbounds ([3 x i8], [3 x i8]* @.str.1, i64 0, i64 0), i32* %29)
  br label %31

31:                                               ; preds = %21
  %32 = load i32, i32* %6, align 4
  %33 = add nsw i32 %32, 1
  store i32 %33, i32* %6, align 4
  br label %17

34:                                               ; preds = %17
  br label %35

35:                                               ; preds = %34
  %36 = load i32, i32* %5, align 4
  %37 = add nsw i32 %36, 1
  store i32 %37, i32* %5, align 4
  br label %12

38:                                               ; preds = %12
  %39 = call i32 (i8*, ...) @__isoc99_scanf(i8* getelementptr inbounds ([6 x i8], [6 x i8]* @.str, i64 0, i64 0), i32* %3, i32* %4)
  store i32 0, i32* %5, align 4
  br label %40

40:                                               ; preds = %63, %38
  %41 = load i32, i32* %5, align 4
  %42 = load i32, i32* %3, align 4
  %43 = icmp slt i32 %41, %42
  br i1 %43, label %44, label %66

44:                                               ; preds = %40
  store i32 0, i32* %6, align 4
  br label %45

45:                                               ; preds = %59, %44
  %46 = load i32, i32* %6, align 4
  %47 = load i32, i32* %4, align 4
  %48 = icmp slt i32 %46, %47
  br i1 %48, label %49, label %62

49:                                               ; preds = %45
  %50 = getelementptr inbounds [100 x [100 x i32]], [100 x [100 x i32]]* %9, i64 0, i64 0
  %51 = load i32, i32* %5, align 4
  %52 = sext i32 %51 to i64
  %53 = getelementptr inbounds [100 x i32], [100 x i32]* %50, i64 %52
  %54 = getelementptr inbounds [100 x i32], [100 x i32]* %53, i64 0, i64 0
  %55 = load i32, i32* %6, align 4
  %56 = sext i32 %55 to i64
  %57 = getelementptr inbounds i32, i32* %54, i64 %56
  %58 = call i32 (i8*, ...) @__isoc99_scanf(i8* getelementptr inbounds ([3 x i8], [3 x i8]* @.str.1, i64 0, i64 0), i32* %57)
  br label %59

59:                                               ; preds = %49
  %60 = load i32, i32* %6, align 4
  %61 = add nsw i32 %60, 1
  store i32 %61, i32* %6, align 4
  br label %45

62:                                               ; preds = %45
  br label %63

63:                                               ; preds = %62
  %64 = load i32, i32* %5, align 4
  %65 = add nsw i32 %64, 1
  store i32 %65, i32* %5, align 4
  br label %40

66:                                               ; preds = %40
  store i32 0, i32* %5, align 4
  br label %67

67:                                               ; preds = %129, %66
  %68 = load i32, i32* %5, align 4
  %69 = load i32, i32* %1, align 4
  %70 = icmp slt i32 %68, %69
  br i1 %70, label %71, label %132

71:                                               ; preds = %67
  store i32 0, i32* %6, align 4
  br label %72

72:                                               ; preds = %125, %71
  %73 = load i32, i32* %6, align 4
  %74 = load i32, i32* %4, align 4
  %75 = icmp slt i32 %73, %74
  br i1 %75, label %76, label %128

76:                                               ; preds = %72
  %77 = load i32, i32* %5, align 4
  %78 = sext i32 %77 to i64
  %79 = getelementptr inbounds [100 x [100 x i32]], [100 x [100 x i32]]* %10, i64 0, i64 %78
  %80 = load i32, i32* %6, align 4
  %81 = sext i32 %80 to i64
  %82 = getelementptr inbounds [100 x i32], [100 x i32]* %79, i64 0, i64 %81
  store i32 0, i32* %82, align 4
  store i32 0, i32* %7, align 4
  br label %83

83:                                               ; preds = %121, %76
  %84 = load i32, i32* %7, align 4
  %85 = load i32, i32* %2, align 4
  %86 = icmp slt i32 %84, %85
  br i1 %86, label %87, label %124

87:                                               ; preds = %83
  %88 = load i32, i32* %5, align 4
  %89 = sext i32 %88 to i64
  %90 = getelementptr inbounds [100 x [100 x i32]], [100 x [100 x i32]]* %10, i64 0, i64 %89
  %91 = load i32, i32* %6, align 4
  %92 = sext i32 %91 to i64
  %93 = getelementptr inbounds [100 x i32], [100 x i32]* %90, i64 0, i64 %92
  %94 = load i32, i32* %93, align 4
  %95 = getelementptr inbounds [100 x [100 x i32]], [100 x [100 x i32]]* %8, i64 0, i64 0
  %96 = load i32, i32* %5, align 4
  %97 = sext i32 %96 to i64
  %98 = getelementptr inbounds [100 x i32], [100 x i32]* %95, i64 %97
  %99 = getelementptr inbounds [100 x i32], [100 x i32]* %98, i64 0, i64 0
  %100 = load i32, i32* %7, align 4
  %101 = sext i32 %100 to i64
  %102 = getelementptr inbounds i32, i32* %99, i64 %101
  %103 = load i32, i32* %102, align 4
  %104 = getelementptr inbounds [100 x [100 x i32]], [100 x [100 x i32]]* %9, i64 0, i64 0
  %105 = load i32, i32* %7, align 4
  %106 = sext i32 %105 to i64
  %107 = getelementptr inbounds [100 x i32], [100 x i32]* %104, i64 %106
  %108 = getelementptr inbounds [100 x i32], [100 x i32]* %107, i64 0, i64 0
  %109 = load i32, i32* %6, align 4
  %110 = sext i32 %109 to i64
  %111 = getelementptr inbounds i32, i32* %108, i64 %110
  %112 = load i32, i32* %111, align 4
  %113 = mul nsw i32 %103, %112
  %114 = add nsw i32 %94, %113
  %115 = load i32, i32* %5, align 4
  %116 = sext i32 %115 to i64
  %117 = getelementptr inbounds [100 x [100 x i32]], [100 x [100 x i32]]* %10, i64 0, i64 %116
  %118 = load i32, i32* %6, align 4
  %119 = sext i32 %118 to i64
  %120 = getelementptr inbounds [100 x i32], [100 x i32]* %117, i64 0, i64 %119
  store i32 %114, i32* %120, align 4
  br label %121

121:                                              ; preds = %87
  %122 = load i32, i32* %7, align 4
  %123 = add nsw i32 %122, 1
  store i32 %123, i32* %7, align 4
  br label %83

124:                                              ; preds = %83
  br label %125

125:                                              ; preds = %124
  %126 = load i32, i32* %6, align 4
  %127 = add nsw i32 %126, 1
  store i32 %127, i32* %6, align 4
  br label %72

128:                                              ; preds = %72
  br label %129

129:                                              ; preds = %128
  %130 = load i32, i32* %5, align 4
  %131 = add nsw i32 %130, 1
  store i32 %131, i32* %5, align 4
  br label %67

132:                                              ; preds = %67
  store i32 0, i32* %5, align 4
  br label %133

133:                                              ; preds = %177, %132
  %134 = load i32, i32* %5, align 4
  %135 = load i32, i32* %1, align 4
  %136 = icmp slt i32 %134, %135
  br i1 %136, label %137, label %180

137:                                              ; preds = %133
  store i32 0, i32* %6, align 4
  br label %138

138:                                              ; preds = %166, %137
  %139 = load i32, i32* %6, align 4
  %140 = load i32, i32* %4, align 4
  %141 = icmp slt i32 %139, %140
  br i1 %141, label %142, label %169

142:                                              ; preds = %138
  %143 = load i32, i32* %6, align 4
  %144 = load i32, i32* %4, align 4
  %145 = sub nsw i32 %144, 1
  %146 = icmp ne i32 %143, %145
  br i1 %146, label %147, label %156

147:                                              ; preds = %142
  %148 = load i32, i32* %5, align 4
  %149 = sext i32 %148 to i64
  %150 = getelementptr inbounds [100 x [100 x i32]], [100 x [100 x i32]]* %10, i64 0, i64 %149
  %151 = load i32, i32* %6, align 4
  %152 = sext i32 %151 to i64
  %153 = getelementptr inbounds [100 x i32], [100 x i32]* %150, i64 0, i64 %152
  %154 = load i32, i32* %153, align 4
  %155 = call i32 (i8*, ...) @printf(i8* getelementptr inbounds ([4 x i8], [4 x i8]* @.str.2, i64 0, i64 0), i32 %154)
  br label %165

156:                                              ; preds = %142
  %157 = load i32, i32* %5, align 4
  %158 = sext i32 %157 to i64
  %159 = getelementptr inbounds [100 x [100 x i32]], [100 x [100 x i32]]* %10, i64 0, i64 %158
  %160 = load i32, i32* %6, align 4
  %161 = sext i32 %160 to i64
  %162 = getelementptr inbounds [100 x i32], [100 x i32]* %159, i64 0, i64 %161
  %163 = load i32, i32* %162, align 4
  %164 = call i32 (i8*, ...) @printf(i8* getelementptr inbounds ([3 x i8], [3 x i8]* @.str.1, i64 0, i64 0), i32 %163)
  br label %165

165:                                              ; preds = %156, %147
  br label %166

166:                                              ; preds = %165
  %167 = load i32, i32* %6, align 4
  %168 = add nsw i32 %167, 1
  store i32 %168, i32* %6, align 4
  br label %138

169:                                              ; preds = %138
  %170 = load i32, i32* %5, align 4
  %171 = load i32, i32* %1, align 4
  %172 = sub nsw i32 %171, 1
  %173 = icmp ne i32 %170, %172
  br i1 %173, label %174, label %176

174:                                              ; preds = %169
  %175 = call i32 (i8*, ...) @printf(i8* getelementptr inbounds ([2 x i8], [2 x i8]* @.str.3, i64 0, i64 0))
  br label %176

176:                                              ; preds = %174, %169
  br label %177

177:                                              ; preds = %176
  %178 = load i32, i32* %5, align 4
  %179 = add nsw i32 %178, 1
  store i32 %179, i32* %5, align 4
  br label %133

180:                                              ; preds = %133
  ret void
}

declare dso_local i32 @__isoc99_scanf(i8*, ...) #1

declare dso_local i32 @printf(i8*, ...) #1


!llvm.module.flags = !{!0}
!llvm.ident = !{!1}

!0 = !{i32 1, !"wchar_size", i32 4}
!1 = !{!"clang version 10.0.0-4ubuntu1 "}
